target datalayout = "e-m:e-p270:32:32-p271:32:32-p272:64:64-i64:64-i128:128-f80:128-n8:16:32:64-S128"
target triple = "x86_64-pc-linux-gnu"

%struct.Amap_Man_t_ = type { ptr, ptr, float, float, i32, i32, ptr, ptr, ptr, ptr, ptr, ptr, ptr, ptr, [7 x i32], i32, i32, i32, ptr, ptr, ptr, ptr, ptr, ptr, ptr, ptr, i32, i32, i32, i32 }
%struct.Amap_Obj_t_ = type { i64, i32, i32, i32, i32, [3 x i32], %union.anon, float, [2 x i32], %struct.Amap_Mat_t_ }
%union.anon = type { ptr }
%struct.Amap_Mat_t_ = type { ptr, ptr, float, float, float }
%struct.Vec_Ptr_t_ = type { i32, i32, ptr }
%struct.Amap_Set_t_ = type { ptr, i32, [15 x i8] }
%struct.Amap_Gat_t_ = type { ptr, ptr, ptr, ptr, double, ptr, ptr, i32, [0 x %struct.Amap_Pin_t_] }
%struct.Amap_Pin_t_ = type { ptr, i32, double, double, double, double, double, double, double }
%struct.Amap_Cut_t_ = type { i32, [0 x i32] }
%struct.Amap_Lib_t_ = type { ptr, ptr, ptr, ptr, ptr, ptr, ptr, ptr, ptr, i32, i32, i32, ptr, i32, i32, ptr, ptr, ptr, ptr, ptr, ptr, i32 }

; Function Attrs: inlinehint nounwind uwtable
define internal ptr @Vec_PtrEntry(ptr noundef %0, i32 noundef %1) #4 {
  %3 = alloca ptr, align 8
  %4 = alloca i32, align 4
  store ptr %0, ptr %3, align 8, !tbaa !28
  store i32 %1, ptr %4, align 4, !tbaa !10
  %5 = load ptr, ptr %3, align 8, !tbaa !28
  %6 = getelementptr inbounds nuw %struct.Vec_Ptr_t_, ptr %5, i32 0, i32 2
  %7 = load ptr, ptr %6, align 8, !tbaa !31
  %8 = load i32, ptr %4, align 4, !tbaa !10
  %9 = sext i32 %8 to i64
  %10 = getelementptr inbounds ptr, ptr %7, i64 %9
  %11 = load ptr, ptr %10, align 8, !tbaa !32
  ret ptr %11
}

; Function Attrs: inlinehint nounwind uwtable
define internal i32 @Amap_ObjIsNode(ptr noundef %0) #4 {
  %2 = alloca ptr, align 8
  store ptr %0, ptr %2, align 8, !tbaa !25
  %3 = load ptr, ptr %2, align 8, !tbaa !25
  %4 = load i64, ptr %3, align 8
  %5 = and i64 %4, 7
  %6 = trunc i64 %5 to i32
  %7 = icmp eq i32 %6, 4
  br i1 %7, label %20, label %8

8:                                                ; preds = %1
  %9 = load ptr, ptr %2, align 8, !tbaa !25
  %10 = load i64, ptr %9, align 8
  %11 = and i64 %10, 7
  %12 = trunc i64 %11 to i32
  %13 = icmp eq i32 %12, 5
  br i1 %13, label %20, label %14

14:                                               ; preds = %8
  %15 = load ptr, ptr %2, align 8, !tbaa !25
  %16 = load i64, ptr %15, align 8
  %17 = and i64 %16, 7
  %18 = trunc i64 %17 to i32
  %19 = icmp eq i32 %18, 6
  br label %20

20:                                               ; preds = %14, %8, %1
  %21 = phi i1 [ true, %8 ], [ true, %1 ], [ %19, %14 ]
  %22 = zext i1 %21 to i32
  ret i32 %22
}

; Function Attrs: inlinehint nounwind uwtable
define internal i32 @Abc_LitIsCompl(i32 noundef %0) #4 {
  %2 = alloca i32, align 4
  store i32 %0, ptr %2, align 4, !tbaa !10
  %3 = load i32, ptr %2, align 4, !tbaa !10
  %4 = and i32 %3, 1
  ret i32 %4
}

; Function Attrs: inlinehint nounwind uwtable
define internal ptr @Amap_ManObj(ptr noundef %0, i32 noundef %1) #4 {
  %3 = alloca ptr, align 8
  %4 = alloca i32, align 4
  store ptr %0, ptr %3, align 8, !tbaa !3
  store i32 %1, ptr %4, align 4, !tbaa !10
  %5 = load ptr, ptr %3, align 8, !tbaa !3
  %6 = getelementptr inbounds nuw %struct.Amap_Man_t_, ptr %5, i32 0, i32 8
  %7 = load ptr, ptr %6, align 8, !tbaa !24
  %8 = load i32, ptr %4, align 4, !tbaa !10
  %9 = call ptr @Vec_PtrEntry(ptr noundef %7, i32 noundef %8)
  ret ptr %9
}

; Function Attrs: inlinehint nounwind uwtable
define internal i32 @Abc_Lit2Var(i32 noundef %0) #4 {
  %2 = alloca i32, align 4
  store i32 %0, ptr %2, align 4, !tbaa !10
  %3 = load i32, ptr %2, align 4, !tbaa !10
  %4 = ashr i32 %3, 1
  ret i32 %4
}

; Function Attrs: inlinehint nounwind uwtable
define internal ptr @Amap_LibGate(ptr noundef %0, i32 noundef %1) #4 {
  %3 = alloca ptr, align 8
  %4 = alloca i32, align 4
  store ptr %0, ptr %3, align 8, !tbaa !54
  store i32 %1, ptr %4, align 4, !tbaa !10
  %5 = load ptr, ptr %3, align 8, !tbaa !54
  %6 = getelementptr inbounds nuw %struct.Amap_Lib_t_, ptr %5, i32 0, i32 1
  %7 = load ptr, ptr %6, align 8, !tbaa !55
  %8 = load i32, ptr %4, align 4, !tbaa !10
  %9 = call ptr @Vec_PtrEntry(ptr noundef %7, i32 noundef %8)
  ret ptr %9
}

; Function Attrs: inlinehint nounwind uwtable
define internal float @Amap_CutAreaRef(ptr noundef %0, ptr noundef %1) #4 {
  %3 = alloca ptr, align 8
  %4 = alloca ptr, align 8
  %5 = alloca ptr, align 8
  %6 = alloca i32, align 4
  %7 = alloca i32, align 4
  %8 = alloca float, align 4
  store ptr %0, ptr %3, align 8, !tbaa !3
  store ptr %1, ptr %4, align 8, !tbaa !42
  call void @llvm.lifetime.start.p0(i64 8, ptr %5) #12
  call void @llvm.lifetime.start.p0(i64 4, ptr %6) #12
  call void @llvm.lifetime.start.p0(i64 4, ptr %7) #12
  call void @llvm.lifetime.start.p0(i64 4, ptr %8) #12
  %9 = load ptr, ptr %3, align 8, !tbaa !3
  %10 = getelementptr inbounds nuw %struct.Amap_Man_t_, ptr %9, i32 0, i32 1
  %11 = load ptr, ptr %10, align 8, !tbaa !44
  %12 = load ptr, ptr %4, align 8, !tbaa !42
  %13 = getelementptr inbounds nuw %struct.Amap_Mat_t_, ptr %12, i32 0, i32 1
  %14 = load ptr, ptr %13, align 8, !tbaa !45
  %15 = getelementptr inbounds nuw %struct.Amap_Set_t_, ptr %14, i32 0, i32 1
  %16 = load i32, ptr %15, align 8
  %17 = and i32 %16, 65535
  %18 = call ptr @Amap_LibGate(ptr noundef %11, i32 noundef %17)
  %19 = getelementptr inbounds nuw %struct.Amap_Gat_t_, ptr %18, i32 0, i32 4
  %20 = load double, ptr %19, align 8, !tbaa !48
  %21 = fptrunc double %20 to float
  store float %21, ptr %8, align 4, !tbaa !33
  store i32 0, ptr %6, align 4, !tbaa !10
  br label %22

22:                                               ; preds = %135, %2
  %23 = load i32, ptr %6, align 4, !tbaa !10
  %24 = load ptr, ptr %4, align 8, !tbaa !42
  %25 = getelementptr inbounds nuw %struct.Amap_Mat_t_, ptr %24, i32 0, i32 0
  %26 = load ptr, ptr %25, align 8, !tbaa !52
  %27 = load i32, ptr %26, align 4
  %28 = lshr i32 %27, 17
  %29 = icmp slt i32 %23, %28
  br i1 %29, label %30, label %81

30:                                               ; preds = %22
  %31 = load ptr, ptr %3, align 8, !tbaa !3
  %32 = load ptr, ptr %4, align 8, !tbaa !42
  %33 = getelementptr inbounds nuw %struct.Amap_Mat_t_, ptr %32, i32 0, i32 0
  %34 = load ptr, ptr %33, align 8, !tbaa !52
  %35 = getelementptr inbounds nuw %struct.Amap_Cut_t_, ptr %34, i32 0, i32 1
  %36 = load ptr, ptr %4, align 8, !tbaa !42
  %37 = getelementptr inbounds nuw %struct.Amap_Mat_t_, ptr %36, i32 0, i32 1
  %38 = load ptr, ptr %37, align 8, !tbaa !45
  %39 = getelementptr inbounds nuw %struct.Amap_Set_t_, ptr %38, i32 0, i32 2
  %40 = load i32, ptr %6, align 4, !tbaa !10
  %41 = sext i32 %40 to i64
  %42 = getelementptr inbounds [15 x i8], ptr %39, i64 0, i64 %41
  %43 = load i8, ptr %42, align 1, !tbaa !40
  %44 = sext i8 %43 to i32
  %45 = call i32 @Abc_Lit2Var(i32 noundef %44)
  %46 = sext i32 %45 to i64
  %47 = getelementptr inbounds [0 x i32], ptr %35, i64 0, i64 %46
  %48 = load i32, ptr %47, align 4, !tbaa !10
  %49 = call i32 @Abc_Lit2Var(i32 noundef %48)
  %50 = call ptr @Amap_ManObj(ptr noundef %31, i32 noundef %49)
  store ptr %50, ptr %5, align 8, !tbaa !25
  br i1 true, label %51, label %81

51:                                               ; preds = %30
  %52 = load ptr, ptr %4, align 8, !tbaa !42
  %53 = getelementptr inbounds nuw %struct.Amap_Mat_t_, ptr %52, i32 0, i32 1
  %54 = load ptr, ptr %53, align 8, !tbaa !45
  %55 = getelementptr inbounds nuw %struct.Amap_Set_t_, ptr %54, i32 0, i32 2
  %56 = load i32, ptr %6, align 4, !tbaa !10
  %57 = sext i32 %56 to i64
  %58 = getelementptr inbounds [15 x i8], ptr %55, i64 0, i64 %57
  %59 = load i8, ptr %58, align 1, !tbaa !40
  %60 = sext i8 %59 to i32
  %61 = call i32 @Abc_LitIsCompl(i32 noundef %60)
  %62 = load ptr, ptr %4, align 8, !tbaa !42
  %63 = getelementptr inbounds nuw %struct.Amap_Mat_t_, ptr %62, i32 0, i32 0
  %64 = load ptr, ptr %63, align 8, !tbaa !52
  %65 = getelementptr inbounds nuw %struct.Amap_Cut_t_, ptr %64, i32 0, i32 1
  %66 = load ptr, ptr %4, align 8, !tbaa !42
  %67 = getelementptr inbounds nuw %struct.Amap_Mat_t_, ptr %66, i32 0, i32 1
  %68 = load ptr, ptr %67, align 8, !tbaa !45
  %69 = getelementptr inbounds nuw %struct.Amap_Set_t_, ptr %68, i32 0, i32 2
  %70 = load i32, ptr %6, align 4, !tbaa !10
  %71 = sext i32 %70 to i64
  %72 = getelementptr inbounds [15 x i8], ptr %69, i64 0, i64 %71
  %73 = load i8, ptr %72, align 1, !tbaa !40
  %74 = sext i8 %73 to i32
  %75 = call i32 @Abc_Lit2Var(i32 noundef %74)
  %76 = sext i32 %75 to i64
  %77 = getelementptr inbounds [0 x i32], ptr %65, i64 0, i64 %76
  %78 = load i32, ptr %77, align 4, !tbaa !10
  %79 = call i32 @Abc_LitIsCompl(i32 noundef %78)
  %80 = xor i32 %61, %79
  store i32 %80, ptr %7, align 4, !tbaa !10
  br label %81

81:                                               ; preds = %51, %30, %22
  %82 = phi i1 [ false, %30 ], [ false, %22 ], [ true, %51 ]
  br i1 %82, label %83, label %138

83:                                               ; preds = %81
  %84 = load ptr, ptr %5, align 8, !tbaa !25
  %85 = load i64, ptr %84, align 8
  %86 = lshr i64 %85, 63
  %87 = trunc i64 %86 to i32
  %88 = load i32, ptr %7, align 4, !tbaa !10
  %89 = icmp ne i32 %87, %88
  br i1 %89, label %90, label %104

90:                                               ; preds = %83
  %91 = load ptr, ptr %5, align 8, !tbaa !25
  %92 = getelementptr inbounds nuw %struct.Amap_Obj_t_, ptr %91, i32 0, i32 8
  %93 = load i32, ptr %7, align 4, !tbaa !10
  %94 = sext i32 %93 to i64
  %95 = getelementptr inbounds [2 x i32], ptr %92, i64 0, i64 %94
  %96 = load i32, ptr %95, align 4, !tbaa !10
  %97 = icmp eq i32 %96, 0
  br i1 %97, label %98, label %104

98:                                               ; preds = %90
  %99 = load ptr, ptr %3, align 8, !tbaa !3
  %100 = getelementptr inbounds nuw %struct.Amap_Man_t_, ptr %99, i32 0, i32 3
  %101 = load float, ptr %100, align 4, !tbaa !82
  %102 = load float, ptr %8, align 4, !tbaa !33
  %103 = fadd float %102, %101
  store float %103, ptr %8, align 4, !tbaa !33
  br label %104

104:                                              ; preds = %98, %90, %83
  %105 = load ptr, ptr %5, align 8, !tbaa !25
  %106 = getelementptr inbounds nuw %struct.Amap_Obj_t_, ptr %105, i32 0, i32 8
  %107 = load i32, ptr %7, align 4, !tbaa !10
  %108 = sext i32 %107 to i64
  %109 = getelementptr inbounds [2 x i32], ptr %106, i64 0, i64 %108
  %110 = load i32, ptr %109, align 4, !tbaa !10
  %111 = add nsw i32 %110, 1
  store i32 %111, ptr %109, align 4, !tbaa !10
  %112 = load ptr, ptr %5, align 8, !tbaa !25
  %113 = getelementptr inbounds nuw %struct.Amap_Obj_t_, ptr %112, i32 0, i32 8
  %114 = load i32, ptr %7, align 4, !tbaa !10
  %115 = icmp ne i32 %114, 0
  %116 = xor i1 %115, true
  %117 = zext i1 %116 to i32
  %118 = sext i32 %117 to i64
  %119 = getelementptr inbounds [2 x i32], ptr %113, i64 0, i64 %118
  %120 = load i32, ptr %119, align 4, !tbaa !10
  %121 = add nsw i32 %110, %120
  %122 = icmp eq i32 %121, 0
  br i1 %122, label %123, label %134

123:                                              ; preds = %104
  %124 = load ptr, ptr %5, align 8, !tbaa !25
  %125 = call i32 @Amap_ObjIsNode(ptr noundef %124)
  %126 = icmp ne i32 %125, 0
  br i1 %126, label %127, label %134

127:                                              ; preds = %123
  %128 = load ptr, ptr %3, align 8, !tbaa !3
  %129 = load ptr, ptr %5, align 8, !tbaa !25
  %130 = getelementptr inbounds nuw %struct.Amap_Obj_t_, ptr %129, i32 0, i32 9
  %131 = call float @Amap_CutAreaRef(ptr noundef %128, ptr noundef %130)
  %132 = load float, ptr %8, align 4, !tbaa !33
  %133 = fadd float %132, %131
  store float %133, ptr %8, align 4, !tbaa !33
  br label %134

134:                                              ; preds = %127, %123, %104
  br label %135

135:                                              ; preds = %134
  %136 = load i32, ptr %6, align 4, !tbaa !10
  %137 = add nsw i32 %136, 1
  store i32 %137, ptr %6, align 4, !tbaa !10
  br label %22, !llvm.loop !89

138:                                              ; preds = %81
  %139 = load float, ptr %8, align 4, !tbaa !33
  call void @llvm.lifetime.end.p0(i64 4, ptr %8) #12
  call void @llvm.lifetime.end.p0(i64 4, ptr %7) #12
  call void @llvm.lifetime.end.p0(i64 4, ptr %6) #12
  call void @llvm.lifetime.end.p0(i64 8, ptr %5) #12
  ret float %139
}